; Function Attrs: mustprogress uwtable
define void @_ZN6google8protobuf4util23ConvertDescriptorToTypeERKNS0_14EnumDescriptorE(ptr noalias nonnull sret(%"class.google::protobuf::Enum") align 8 %agg.result, ptr nocapture noundef nonnull readonly align 8 dereferenceable(88) %descriptor) local_unnamed_addr #3 personality ptr @__gxx_personality_v0 {
entry:
  tail call void @_ZN6google8protobuf4EnumC2EPNS0_5ArenaE(ptr noundef nonnull align 8 dereferenceable(104) %agg.result, ptr noundef null)
  invoke fastcc void @_ZN6google8protobuf4util12_GLOBAL__N_121ConvertEnumDescriptorERKNS0_14EnumDescriptorEPNS0_4EnumE(ptr noundef nonnull align 8 dereferenceable(88) %descriptor, ptr noundef nonnull %agg.result)
          to label %nrvo.skipdtor unwind label %lpad

lpad:                                             ; preds = %entry
  %0 = landingpad { ptr, i32 }
          cleanup
  tail call void @_ZN6google8protobuf4EnumD1Ev(ptr noundef nonnull align 8 dereferenceable(104) %agg.result) #13
  resume { ptr, i32 } %0

nrvo.skipdtor:                                    ; preds = %entry
  ret void
}